Certificate:
    Data:
        Version: 3 (0x2)
        Serial Number:
            2f:30:88:7c:94:00:79:29:69:f4:53:88:24:f6:eb:64
    Signature Algorithm: sha256WithRSAEncryption
        Issuer: CN=rasvpn
        Validity
            Not Before: Jun 19 16:38:50 2020 GMT
            Not After : Sep 22 16:38:50 2022 GMT
        Subject: CN=client
        Subject Public Key Info:
            Public Key Algorithm: rsaEncryption
                Public-Key: (2048 bit)
                Modulus:
                    00:ad:cc:85:63:46:45:20:02:c9:77:20:75:ab:a2:
                    60:e2:30:e8:bc:71:75:1c:30:1b:4a:c9:50:c1:c5:
                    16:eb:2b:6f:d9:f0:64:e8:58:c6:a1:bf:25:4b:9c:
                    cb:53:22:b4:a0:b4:a0:a1:83:ee:05:6e:d1:82:a3:
                    ae:56:ac:20:79:55:cb:a2:b4:28:1e:dd:5f:50:e8:
                    a5:51:1c:45:04:74:f5:08:93:54:72:f0:eb:48:cc:
                    62:e7:9d:8c:48:d1:c1:5f:52:6f:bb:bb:81:d5:b7:
                    a8:25:10:14:4d:61:1e:56:31:48:cd:10:df:d9:89:
                    43:46:aa:87:83:ea:56:e5:f5:4a:a9:2c:e9:90:e2:
                    d7:bc:eb:5c:2c:5b:ca:94:3d:7a:bb:c4:18:3f:fb:
                    7a:a5:14:5e:32:f1:22:9b:f6:e8:26:da:9a:21:5d:
                    f6:ba:23:8e:9c:75:cc:1d:5c:14:5c:d9:72:70:f4:
                    39:4b:86:56:d0:da:66:65:63:bc:f7:c6:b0:17:ac:
                    41:e7:37:de:63:55:be:45:c6:fe:e6:e7:a8:7d:80:
                    e9:fd:6b:ca:64:f7:46:5b:d4:91:69:2b:75:10:f7:
                    ec:d5:c3:15:09:ea:9b:0f:28:ad:d8:e5:2f:28:07:
                    12:fa:91:a7:7f:70:50:82:19:cf:81:a8:20:b0:80:
                    68:0d
                Exponent: 65537 (0x10001)
        X509v3 extensions:
            X509v3 Basic Constraints: 
                CA:FALSE
            X509v3 Subject Key Identifier: 
                F0:FB:19:05:A5:F1:55:2C:C8:AF:A2:C3:F3:83:77:27:B8:05:A9:40
            X509v3 Authority Key Identifier: 
                keyid:34:D7:20:B7:6F:B7:13:FF:60:C6:AE:E1:25:88:6A:91:B8:D9:A1:08
                DirName:/CN=rasvpn
                serial:CA:FF:97:30:72:2E:71:21

            X509v3 Extended Key Usage: 
                TLS Web Client Authentication
            X509v3 Key Usage: 
                Digital Signature
    Signature Algorithm: sha256WithRSAEncryption
         92:ad:f6:38:59:fb:f1:8d:aa:bb:bf:bb:40:66:60:fa:21:21:
         0d:2e:6d:7b:f8:c1:81:21:78:9f:33:ef:51:b0:00:b8:99:38:
         12:b2:2b:2a:88:f3:33:af:3a:71:15:5e:0e:6b:9b:09:07:16:
         e6:56:3a:c7:d8:69:60:27:f6:a7:71:4c:78:db:7e:20:f9:51:
         b9:5e:b1:a2:52:a6:f8:aa:b4:bc:5e:10:58:5f:2f:9d:a7:ca:
         07:0c:78:e8:27:1d:ba:a5:db:15:d0:91:e7:05:0f:81:60:dc:
         41:e5:37:c3:a6:97:e8:da:3f:cc:eb:2a:f6:33:b1:2d:7b:4d:
         7c:bd:a0:8f:9d:af:3b:d6:44:86:86:92:67:2a:33:f1:f9:a9:
         3b:e0:5d:61:92:0b:4b:2b:f5:00:0c:16:f5:5f:1c:de:bf:df:
         1f:3e:3c:f4:4b:c7:79:bd:ea:e8:51:bf:a6:de:17:ce:31:fa:
         39:e6:b9:da:cd:9e:b7:81:d2:e4:3e:02:3a:f3:6d:3b:8a:f9:
         a0:16:fa:c5:51:e0:07:82:a1:a9:eb:6a:87:de:8d:39:22:ef:
         11:b3:d4:c1:58:73:6c:a0:dc:7e:38:13:b1:ae:ff:4a:88:7d:
         b1:1e:28:23:bb:b6:d9:95:f3:db:f4:be:3f:c9:aa:91:53:40:
         78:f6:be:93
-----BEGIN CERTIFICATE-----
MIIDPzCCAiegAwIBAgIQLzCIfJQAeSlp9FOIJPbrZDANBgkqhkiG9w0BAQsFADAR
MQ8wDQYDVQQDDAZyYXN2cG4wHhcNMjAwNjE5MTYzODUwWhcNMjIwOTIyMTYzODUw
WjARMQ8wDQYDVQQDDAZjbGllbnQwggEiMA0GCSqGSIb3DQEBAQUAA4IBDwAwggEK
AoIBAQCtzIVjRkUgAsl3IHWromDiMOi8cXUcMBtKyVDBxRbrK2/Z8GToWMahvyVL
nMtTIrSgtKChg+4FbtGCo65WrCB5VcuitCge3V9Q6KVRHEUEdPUIk1Ry8OtIzGLn
nYxI0cFfUm+7u4HVt6glEBRNYR5WMUjNEN/ZiUNGqoeD6lbl9UqpLOmQ4te861ws
W8qUPXq7xBg/+3qlFF4y8SKb9ugm2pohXfa6I46cdcwdXBRc2XJw9DlLhlbQ2mZl
Y7z3xrAXrEHnN95jVb5Fxv7m56h9gOn9a8pk90Zb1JFpK3UQ9+zVwxUJ6psPKK3Y
5S8oBxL6kad/cFCCGc+BqCCwgGgNAgMBAAGjgZIwgY8wCQYDVR0TBAIwADAdBgNV
HQ4EFgQU8PsZBaXxVSzIr6LD84N3J7gFqUAwQQYDVR0jBDowOIAUNNcgt2+3E/9g
xq7hJYhqkbjZoQihFaQTMBExDzANBgNVBAMMBnJhc3ZwboIJAMr/lzByLnEhMBMG
A1UdJQQMMAoGCCsGAQUFBwMCMAsGA1UdDwQEAwIHgDANBgkqhkiG9w0BAQsFAAOC
AQEAkq32OFn78Y2qu7+7QGZg+iEhDS5te/jBgSF4nzPvUbAAuJk4ErIrKojzM686
cRVeDmubCQcW5lY6x9hpYCf2p3FMeNt+IPlRuV6xolKm+Kq0vF4QWF8vnafKBwx4
6CcduqXbFdCR5wUPgWDcQeU3w6aX6No/zOsq9jOxLXtNfL2gj52vO9ZEhoaSZyoz
8fmpO+BdYZILSyv1AAwW9V8c3r/fHz489EvHeb3q6FG/pt4XzjH6Oea52s2et4HS
5D4COvNtO4r5oBb6xVHgB4Khqetqh96NOSLvEbPUwVhzbKDcfjgTsa7/Soh9sR4o
I7u22ZXz2/S+P8mqkVNAePa+kw==
-----END CERTIFICATE-----
